; Function Attrs: nounwind sspstrong uwtable
define internal i64 @ossl_ec_group_get_point_conversion_form(i64 noundef %0) #0 {
  %2 = tail call ptr @rb_check_typeddata(i64 noundef %0, ptr noundef nonnull @ossl_ec_group_type) #7
  %3 = icmp eq ptr %2, null
  br i1 %3, label %4, label %6

4:                                                ; preds = %1
  %5 = load i64, ptr @eEC_GROUP, align 8, !tbaa !6
  tail call void (i64, ptr, ...) @ossl_raise(i64 noundef %5, ptr noundef nonnull @.str.59) #9
  unreachable

6:                                                ; preds = %1
  %7 = tail call i32 @EC_GROUP_get_point_conversion_form(ptr noundef nonnull %2) #7
  switch i32 %7, label %10 [
    i32 4, label %12
    i32 2, label %8
    i32 6, label %9
  ]

8:                                                ; preds = %6
  br label %12

9:                                                ; preds = %6
  br label %12

10:                                               ; preds = %6
  %11 = load i64, ptr @eEC_GROUP, align 8, !tbaa !6
  tail call void (i64, ptr, ...) @ossl_raise(i64 noundef %11, ptr noundef nonnull @.str.90, i32 noundef %7) #9
  unreachable

12:                                               ; preds = %6, %9, %8
  %.0.in = phi ptr [ @ID_hybrid, %9 ], [ @ID_compressed, %8 ], [ @ID_uncompressed, %6 ]
  %.0 = load i64, ptr %.0.in, align 8, !tbaa !6
  %13 = tail call i64 @rb_id2sym(i64 noundef %.0) #7
  ret i64 %13
}